target datalayout = "e-m:e-p270:32:32-p271:32:32-p272:64:64-i64:64-i128:128-f80:128-n8:16:32:64-S128"
target triple = "x86_64-pc-linux-gnu"

%"class.net::HpackHuffmanTable" = type <{ %"class.std::vector", %"class.std::vector.0", %"class.std::vector.5", %"class.std::vector.10", i8, i8, i16, [4 x i8] }>
%"class.std::vector" = type { %"struct.std::_Vector_base" }
%"struct.std::_Vector_base" = type { %"struct.std::_Vector_base<net::HpackHuffmanTable::DecodeTable, std::allocator<net::HpackHuffmanTable::DecodeTable>>::_Vector_impl" }
%"struct.std::_Vector_base<net::HpackHuffmanTable::DecodeTable, std::allocator<net::HpackHuffmanTable::DecodeTable>>::_Vector_impl" = type { %"struct.std::_Vector_base<net::HpackHuffmanTable::DecodeTable, std::allocator<net::HpackHuffmanTable::DecodeTable>>::_Vector_impl_data" }
%"struct.std::_Vector_base<net::HpackHuffmanTable::DecodeTable, std::allocator<net::HpackHuffmanTable::DecodeTable>>::_Vector_impl_data" = type { ptr, ptr, ptr }
%"class.std::vector.0" = type { %"struct.std::_Vector_base.1" }
%"struct.std::_Vector_base.1" = type { %"struct.std::_Vector_base<net::HpackHuffmanTable::DecodeEntry, std::allocator<net::HpackHuffmanTable::DecodeEntry>>::_Vector_impl" }
%"struct.std::_Vector_base<net::HpackHuffmanTable::DecodeEntry, std::allocator<net::HpackHuffmanTable::DecodeEntry>>::_Vector_impl" = type { %"struct.std::_Vector_base<net::HpackHuffmanTable::DecodeEntry, std::allocator<net::HpackHuffmanTable::DecodeEntry>>::_Vector_impl_data" }
%"struct.std::_Vector_base<net::HpackHuffmanTable::DecodeEntry, std::allocator<net::HpackHuffmanTable::DecodeEntry>>::_Vector_impl_data" = type { ptr, ptr, ptr }
%"class.std::vector.5" = type { %"struct.std::_Vector_base.6" }
%"struct.std::_Vector_base.6" = type { %"struct.std::_Vector_base<unsigned int, std::allocator<unsigned int>>::_Vector_impl" }
%"struct.std::_Vector_base<unsigned int, std::allocator<unsigned int>>::_Vector_impl" = type { %"struct.std::_Vector_base<unsigned int, std::allocator<unsigned int>>::_Vector_impl_data" }
%"struct.std::_Vector_base<unsigned int, std::allocator<unsigned int>>::_Vector_impl_data" = type { ptr, ptr, ptr }
%"class.std::vector.10" = type { %"struct.std::_Vector_base.11" }
%"struct.std::_Vector_base.11" = type { %"struct.std::_Vector_base<unsigned char, std::allocator<unsigned char>>::_Vector_impl" }
%"struct.std::_Vector_base<unsigned char, std::allocator<unsigned char>>::_Vector_impl" = type { %"struct.std::_Vector_base<unsigned char, std::allocator<unsigned char>>::_Vector_impl_data" }
%"struct.std::_Vector_base<unsigned char, std::allocator<unsigned char>>::_Vector_impl_data" = type { ptr, ptr, ptr }
%"class.logging::LogMessage" = type <{ i32, [4 x i8], %"class.std::__cxx11::basic_ostringstream", i64, ptr, i32, [4 x i8] }>
%"class.std::__cxx11::basic_ostringstream" = type { %"class.std::basic_ostream.base", %"class.std::__cxx11::basic_stringbuf", %"class.std::basic_ios" }
%"class.std::basic_ostream.base" = type { ptr }
%"class.std::__cxx11::basic_stringbuf" = type { %"class.std::basic_streambuf", i32, %"class.std::__cxx11::basic_string" }
%"class.std::basic_streambuf" = type { ptr, ptr, ptr, ptr, ptr, ptr, ptr, %"class.std::locale" }
%"class.std::locale" = type { ptr }
%"class.std::__cxx11::basic_string" = type { %"struct.std::__cxx11::basic_string<char>::_Alloc_hider", i64, %union.anon }
%"struct.std::__cxx11::basic_string<char>::_Alloc_hider" = type { ptr }
%union.anon = type { i64, [8 x i8] }
%"class.std::basic_ios" = type { %"class.std::ios_base", ptr, i8, i8, ptr, ptr, ptr, ptr }
%"class.std::ios_base" = type { ptr, i64, i64, i32, i32, i32, ptr, %"struct.std::ios_base::_Words", [8 x %"struct.std::ios_base::_Words"], i32, ptr, %"class.std::locale" }
%"struct.std::ios_base::_Words" = type { ptr, i64 }
%"class.logging::CheckOpResult" = type { ptr }
%"class.base::BasicStringPiece" = type { ptr, i64 }

@.str = private unnamed_addr constant [135 x i8] c"generated/home/dtcxzyw/WorkSpace/Projects/compilers/llvm-opt-benchmark/bench/libquic/libquic/src/net/spdy/hpack/hpack_huffman_table.cc\00", align 1
@.str.10 = private unnamed_addr constant [31 x i8] c"code_by_id_.size() > symbol_id\00", align 1

; Function Attrs: mustprogress nounwind uwtable
define linkonce_odr noundef nonnull align 1 dereferenceable(1) ptr @_ZNKSt6vectorIhSaIhEEixEm(ptr noundef nonnull align 8 dereferenceable(24) %0, i64 noundef %1) #0 comdat align 2 {
  %3 = alloca ptr, align 8
  %4 = alloca i64, align 8
  store ptr %0, ptr %3, align 8, !tbaa !28
  store i64 %1, ptr %4, align 8, !tbaa !46
  %5 = load ptr, ptr %3, align 8
  %6 = getelementptr inbounds nuw %"struct.std::_Vector_base.11", ptr %5, i32 0, i32 0
  %7 = getelementptr inbounds nuw %"struct.std::_Vector_base<unsigned char, std::allocator<unsigned char>>::_Vector_impl_data", ptr %6, i32 0, i32 0
  %8 = load ptr, ptr %7, align 8, !tbaa !30
  %9 = load i64, ptr %4, align 8, !tbaa !46
  %10 = getelementptr inbounds nuw i8, ptr %8, i64 %9
  ret ptr %10
}

; Function Attrs: mustprogress nounwind uwtable
define linkonce_odr noundef nonnull align 8 dereferenceable(8) ptr @_ZN7logging10LogMessage6streamEv(ptr noundef nonnull align 8 dereferenceable(404) %0) #0 comdat align 2 {
  %2 = alloca ptr, align 8
  store ptr %0, ptr %2, align 8, !tbaa !76
  %3 = load ptr, ptr %2, align 8
  %4 = getelementptr inbounds nuw %"class.logging::LogMessage", ptr %3, i32 0, i32 2
  ret ptr %4
}

; Function Attrs: mustprogress nounwind uwtable
define linkonce_odr noundef ptr @_ZN7logging13CheckOpResult7messageB5cxx11Ev(ptr noundef nonnull align 8 dereferenceable(8) %0) #0 comdat align 2 {
  %2 = alloca ptr, align 8
  store ptr %0, ptr %2, align 8, !tbaa !101
  %3 = load ptr, ptr %2, align 8
  %4 = getelementptr inbounds nuw %"class.logging::CheckOpResult", ptr %3, i32 0, i32 0
  %5 = load ptr, ptr %4, align 8, !tbaa !105
  ret ptr %5
}

; Function Attrs: mustprogress nounwind uwtable
define linkonce_odr noundef zeroext i1 @_ZNK7logging13CheckOpResultcvbEv(ptr noundef nonnull align 8 dereferenceable(8) %0) #0 comdat align 2 {
  %2 = alloca ptr, align 8
  store ptr %0, ptr %2, align 8, !tbaa !101
  %3 = load ptr, ptr %2, align 8
  %4 = getelementptr inbounds nuw %"class.logging::CheckOpResult", ptr %3, i32 0, i32 0
  %5 = load ptr, ptr %4, align 8, !tbaa !105
  %6 = icmp ne ptr %5, null
  %7 = xor i1 %6, true
  ret i1 %7
}

; Function Attrs: mustprogress nounwind uwtable
define linkonce_odr void @_ZN7logging13CheckOpResultC2EPNSt7__cxx1112basic_stringIcSt11char_traitsIcESaIcEEE(ptr noundef nonnull align 8 dereferenceable(8) %0, ptr noundef %1) unnamed_addr #0 comdat align 2 {
  %3 = alloca ptr, align 8
  %4 = alloca ptr, align 8
  store ptr %0, ptr %3, align 8, !tbaa !101
  store ptr %1, ptr %4, align 8, !tbaa !103
  %5 = load ptr, ptr %3, align 8
  %6 = getelementptr inbounds nuw %"class.logging::CheckOpResult", ptr %5, i32 0, i32 0
  %7 = load ptr, ptr %4, align 8, !tbaa !103
  store ptr %7, ptr %6, align 8, !tbaa !105
  ret void
}

; Function Attrs: inlinehint mustprogress uwtable
define linkonce_odr noundef ptr @_ZN7logging11CheckGTImplImtEEPNSt7__cxx1112basic_stringIcSt11char_traitsIcESaIcEEERKT_RKT0_PKc(ptr noundef nonnull align 8 dereferenceable(8) %0, ptr noundef nonnull align 2 dereferenceable(2) %1, ptr noundef %2) #6 comdat {
  %4 = alloca ptr, align 8
  %5 = alloca ptr, align 8
  %6 = alloca ptr, align 8
  %7 = alloca ptr, align 8
  store ptr %0, ptr %5, align 8, !tbaa !96
  store ptr %1, ptr %6, align 8, !tbaa !98
  store ptr %2, ptr %7, align 8, !tbaa !100
  %8 = load ptr, ptr %5, align 8, !tbaa !96
  %9 = load i64, ptr %8, align 8, !tbaa !46
  %10 = load ptr, ptr %6, align 8, !tbaa !98
  %11 = load i16, ptr %10, align 2, !tbaa !14
  %12 = zext i16 %11 to i64
  %13 = icmp ugt i64 %9, %12
  br i1 %13, label %14, label %15

14:                                               ; preds = %3
  store ptr null, ptr %4, align 8
  br label %20

15:                                               ; preds = %3
  %16 = load ptr, ptr %5, align 8, !tbaa !96
  %17 = load ptr, ptr %6, align 8, !tbaa !98
  %18 = load ptr, ptr %7, align 8, !tbaa !100
  %19 = call noundef ptr @_ZN7logging17MakeCheckOpStringImtEEPNSt7__cxx1112basic_stringIcSt11char_traitsIcESaIcEEERKT_RKT0_PKc(ptr noundef nonnull align 8 dereferenceable(8) %16, ptr noundef nonnull align 2 dereferenceable(2) %17, ptr noundef %18)
  store ptr %19, ptr %4, align 8
  br label %20

20:                                               ; preds = %15, %14
  %21 = load ptr, ptr %4, align 8
  ret ptr %21
}

; Function Attrs: mustprogress nounwind uwtable
define linkonce_odr noundef i64 @_ZNKSt6vectorIjSaIjEE4sizeEv(ptr noundef nonnull align 8 dereferenceable(24) %0) #0 comdat align 2 {
  %2 = alloca ptr, align 8
  store ptr %0, ptr %2, align 8, !tbaa !26
  %3 = load ptr, ptr %2, align 8
  %4 = getelementptr inbounds nuw %"struct.std::_Vector_base.6", ptr %3, i32 0, i32 0
  %5 = getelementptr inbounds nuw %"struct.std::_Vector_base<unsigned int, std::allocator<unsigned int>>::_Vector_impl_data", ptr %4, i32 0, i32 1
  %6 = load ptr, ptr %5, align 8, !tbaa !37
  %7 = getelementptr inbounds nuw %"struct.std::_Vector_base.6", ptr %3, i32 0, i32 0
  %8 = getelementptr inbounds nuw %"struct.std::_Vector_base<unsigned int, std::allocator<unsigned int>>::_Vector_impl_data", ptr %7, i32 0, i32 0
  %9 = load ptr, ptr %8, align 8, !tbaa !34
  %10 = ptrtoint ptr %6 to i64
  %11 = ptrtoint ptr %9 to i64
  %12 = sub i64 %10, %11
  %13 = sdiv exact i64 %12, 4
  ret i64 %13
}

; Function Attrs: mustprogress nounwind uwtable
define available_externally noundef signext i8 @_ZNK4base16BasicStringPieceINSt7__cxx1112basic_stringIcSt11char_traitsIcESaIcEEEEixEm(ptr noundef nonnull align 8 dereferenceable(16) %0, i64 noundef %1) #0 align 2 {
  %3 = alloca ptr, align 8
  %4 = alloca i64, align 8
  store ptr %0, ptr %3, align 8, !tbaa !117
  store i64 %1, ptr %4, align 8, !tbaa !46
  %5 = load ptr, ptr %3, align 8
  %6 = getelementptr inbounds nuw %"class.base::BasicStringPiece", ptr %5, i32 0, i32 0
  %7 = load ptr, ptr %6, align 8, !tbaa !121
  %8 = load i64, ptr %4, align 8, !tbaa !46
  %9 = getelementptr inbounds nuw i8, ptr %7, i64 %8
  %10 = load i8, ptr %9, align 1, !tbaa !13
  ret i8 %10
}

; Function Attrs: mustprogress nounwind uwtable
define available_externally noundef i64 @_ZNK4base16BasicStringPieceINSt7__cxx1112basic_stringIcSt11char_traitsIcESaIcEEEE4sizeEv(ptr noundef nonnull align 8 dereferenceable(16) %0) #0 align 2 {
  %2 = alloca ptr, align 8
  store ptr %0, ptr %2, align 8, !tbaa !117
  %3 = load ptr, ptr %2, align 8
  %4 = getelementptr inbounds nuw %"class.base::BasicStringPiece", ptr %3, i32 0, i32 1
  %5 = load i64, ptr %4, align 8, !tbaa !119
  ret i64 %5
}

; Function Attrs: mustprogress uwtable
define noundef i64 @_ZNK3net17HpackHuffmanTable11EncodedSizeEN4base16BasicStringPieceINSt7__cxx1112basic_stringIcSt11char_traitsIcESaIcEEEEE(ptr noundef nonnull align 8 dereferenceable(100) %0, ptr %1, i64 %2) #1 align 2 personality ptr @__gxx_personality_v0 {
  %4 = alloca %"class.base::BasicStringPiece", align 8
  %5 = alloca ptr, align 8
  %6 = alloca i64, align 8
  %7 = alloca i64, align 8
  %8 = alloca i16, align 2
  %9 = alloca %"class.logging::CheckOpResult", align 8
  %10 = alloca i64, align 8
  %11 = alloca %"class.logging::LogMessage", align 8
  %12 = alloca ptr, align 8
  %13 = alloca i32, align 4
  %14 = getelementptr inbounds nuw { ptr, i64 }, ptr %4, i32 0, i32 0
  store ptr %1, ptr %14, align 8
  %15 = getelementptr inbounds nuw { ptr, i64 }, ptr %4, i32 0, i32 1
  store i64 %2, ptr %15, align 8
  store ptr %0, ptr %5, align 8, !tbaa !20
  %16 = load ptr, ptr %5, align 8
  call void @llvm.lifetime.start.p0(i64 8, ptr %6) #16
  store i64 0, ptr %6, align 8, !tbaa !46
  call void @llvm.lifetime.start.p0(i64 8, ptr %7) #16
  store i64 0, ptr %7, align 8, !tbaa !46
  br label %17

17:                                               ; preds = %48, %3
  %18 = load i64, ptr %7, align 8, !tbaa !46
  %19 = call noundef i64 @_ZNK4base16BasicStringPieceINSt7__cxx1112basic_stringIcSt11char_traitsIcESaIcEEEE4sizeEv(ptr noundef nonnull align 8 dereferenceable(16) %4)
  %20 = icmp ne i64 %18, %19
  br i1 %20, label %22, label %21

21:                                               ; preds = %17
  call void @llvm.lifetime.end.p0(i64 8, ptr %7) #16
  br label %51

22:                                               ; preds = %17
  call void @llvm.lifetime.start.p0(i64 2, ptr %8) #16
  %23 = load i64, ptr %7, align 8, !tbaa !46
  %24 = call noundef signext i8 @_ZNK4base16BasicStringPieceINSt7__cxx1112basic_stringIcSt11char_traitsIcESaIcEEEEixEm(ptr noundef nonnull align 8 dereferenceable(16) %4, i64 noundef %23)
  %25 = zext i8 %24 to i16
  store i16 %25, ptr %8, align 2, !tbaa !14
  call void @llvm.lifetime.start.p0(i64 8, ptr %9) #16
  call void @llvm.lifetime.start.p0(i64 8, ptr %10) #16
  %26 = getelementptr inbounds nuw %"class.net::HpackHuffmanTable", ptr %16, i32 0, i32 2
  %27 = call noundef i64 @_ZNKSt6vectorIjSaIjEE4sizeEv(ptr noundef nonnull align 8 dereferenceable(24) %26) #16
  store i64 %27, ptr %10, align 8, !tbaa !46
  %28 = call noundef ptr @_ZN7logging11CheckGTImplImtEEPNSt7__cxx1112basic_stringIcSt11char_traitsIcESaIcEEERKT_RKT0_PKc(ptr noundef nonnull align 8 dereferenceable(8) %10, ptr noundef nonnull align 2 dereferenceable(2) %8, ptr noundef @.str.10)
  call void @_ZN7logging13CheckOpResultC2EPNSt7__cxx1112basic_stringIcSt11char_traitsIcESaIcEEE(ptr noundef nonnull align 8 dereferenceable(8) %9, ptr noundef %28)
  call void @llvm.lifetime.end.p0(i64 8, ptr %10) #16
  %29 = call noundef zeroext i1 @_ZNK7logging13CheckOpResultcvbEv(ptr noundef nonnull align 8 dereferenceable(8) %9)
  br i1 %29, label %30, label %31

30:                                               ; preds = %22
  br label %39

31:                                               ; preds = %22
  call void @llvm.lifetime.start.p0(i64 408, ptr %11) #16
  %32 = call noundef ptr @_ZN7logging13CheckOpResult7messageB5cxx11Ev(ptr noundef nonnull align 8 dereferenceable(8) %9)
  call void @_ZN7logging10LogMessageC1EPKciPNSt7__cxx1112basic_stringIcSt11char_traitsIcESaIcEEE(ptr noundef nonnull align 8 dereferenceable(404) %11, ptr noundef @.str, i32 noundef 258, ptr noundef %32)
  %33 = invoke noundef nonnull align 8 dereferenceable(8) ptr @_ZN7logging10LogMessage6streamEv(ptr noundef nonnull align 8 dereferenceable(404) %11)
          to label %34 unwind label %35

34:                                               ; preds = %31
  call void @_ZN7logging10LogMessageD1Ev(ptr noundef nonnull align 8 dereferenceable(404) %11) #16
  call void @llvm.lifetime.end.p0(i64 408, ptr %11) #16
  br label %39

35:                                               ; preds = %31
  %36 = landingpad { ptr, i32 }
          cleanup
  %37 = extractvalue { ptr, i32 } %36, 0
  store ptr %37, ptr %12, align 8
  %38 = extractvalue { ptr, i32 } %36, 1
  store i32 %38, ptr %13, align 4
  call void @_ZN7logging10LogMessageD1Ev(ptr noundef nonnull align 8 dereferenceable(404) %11) #16
  call void @llvm.lifetime.end.p0(i64 408, ptr %11) #16
  call void @llvm.lifetime.end.p0(i64 8, ptr %9) #16
  call void @llvm.lifetime.end.p0(i64 2, ptr %8) #16
  call void @llvm.lifetime.end.p0(i64 8, ptr %7) #16
  call void @llvm.lifetime.end.p0(i64 8, ptr %6) #16
  br label %64

39:                                               ; preds = %34, %30
  call void @llvm.lifetime.end.p0(i64 8, ptr %9) #16
  %40 = getelementptr inbounds nuw %"class.net::HpackHuffmanTable", ptr %16, i32 0, i32 3
  %41 = load i16, ptr %8, align 2, !tbaa !14
  %42 = zext i16 %41 to i64
  %43 = call noundef nonnull align 1 dereferenceable(1) ptr @_ZNKSt6vectorIhSaIhEEixEm(ptr noundef nonnull align 8 dereferenceable(24) %40, i64 noundef %42) #16
  %44 = load i8, ptr %43, align 1, !tbaa !13
  %45 = zext i8 %44 to i64
  %46 = load i64, ptr %6, align 8, !tbaa !46
  %47 = add i64 %46, %45
  store i64 %47, ptr %6, align 8, !tbaa !46
  call void @llvm.lifetime.end.p0(i64 2, ptr %8) #16
  br label %48

48:                                               ; preds = %39
  %49 = load i64, ptr %7, align 8, !tbaa !46
  %50 = add i64 %49, 1
  store i64 %50, ptr %7, align 8, !tbaa !46
  br label %17, !llvm.loop !122

51:                                               ; preds = %21
  %52 = load i64, ptr %6, align 8, !tbaa !46
  %53 = urem i64 %52, 8
  %54 = icmp ne i64 %53, 0
  br i1 %54, label %55, label %61

55:                                               ; preds = %51
  %56 = load i64, ptr %6, align 8, !tbaa !46
  %57 = urem i64 %56, 8
  %58 = sub i64 8, %57
  %59 = load i64, ptr %6, align 8, !tbaa !46
  %60 = add i64 %59, %58
  store i64 %60, ptr %6, align 8, !tbaa !46
  br label %61

61:                                               ; preds = %55, %51
  %62 = load i64, ptr %6, align 8, !tbaa !46
  %63 = udiv i64 %62, 8
  call void @llvm.lifetime.end.p0(i64 8, ptr %6) #16
  ret i64 %63

64:                                               ; preds = %35
  %65 = load ptr, ptr %12, align 8
  %66 = load i32, ptr %13, align 4
  %67 = insertvalue { ptr, i32 } poison, ptr %65, 0
  %68 = insertvalue { ptr, i32 } %67, i32 %66, 1
  resume { ptr, i32 } %68
}