; Function Attrs: mustprogress uwtable
define noundef range(i64 0, 2305843009213693952) i64 @_ZNK3net17HpackHuffmanTable11EncodedSizeEN4base16BasicStringPieceINSt7__cxx1112basic_stringIcSt11char_traitsIcESaIcEEEEE(ptr noundef nonnull readonly align 8 captures(none) dereferenceable(100) %0, ptr readonly captures(none) %1, i64 %2) local_unnamed_addr #3 align 2 personality ptr @__gxx_personality_v0 {
  %4 = alloca i16, align 2
  %5 = alloca i64, align 8
  %6 = alloca %"class.logging::LogMessage", align 8
  %.not15 = icmp eq i64 %2, 0
  br i1 %.not15, label %._crit_edge, label %.lr.ph

.lr.ph:                                           ; preds = %3
  %7 = getelementptr inbounds nuw i8, ptr %0, i64 48
  %8 = getelementptr inbounds nuw i8, ptr %0, i64 56
  %9 = getelementptr inbounds nuw i8, ptr %0, i64 72
  br label %12

._crit_edge.loopexit:                             ; preds = %26
  %10 = add i64 %33, 7
  %11 = lshr i64 %10, 3
  br label %._crit_edge

._crit_edge:                                      ; preds = %._crit_edge.loopexit, %3
  %.08.lcssa = phi i64 [ 0, %3 ], [ %11, %._crit_edge.loopexit ]
  ret i64 %.08.lcssa

12:                                               ; preds = %.lr.ph, %26
  %.017 = phi i64 [ 0, %.lr.ph ], [ %34, %26 ]
  %.0816 = phi i64 [ 0, %.lr.ph ], [ %33, %26 ]
  call void @llvm.lifetime.start.p0(i64 2, ptr nonnull %4) #20
  %13 = getelementptr inbounds nuw i8, ptr %1, i64 %.017
  %14 = load i8, ptr %13, align 1, !tbaa !67
  %15 = zext i8 %14 to i16
  store i16 %15, ptr %4, align 2, !tbaa !77
  call void @llvm.lifetime.start.p0(i64 8, ptr nonnull %5) #20
  %16 = load ptr, ptr %8, align 8, !tbaa !78
  %17 = load ptr, ptr %7, align 8, !tbaa !17
  %18 = ptrtoint ptr %16 to i64
  %19 = ptrtoint ptr %17 to i64
  %20 = sub i64 %18, %19
  %21 = ashr exact i64 %20, 2
  store i64 %21, ptr %5, align 8, !tbaa !68
  %22 = zext i8 %14 to i64
  %23 = icmp ugt i64 %21, %22
  br i1 %23, label %_ZN7logging11CheckGTImplImtEEPNSt7__cxx1112basic_stringIcSt11char_traitsIcESaIcEEERKT_RKT0_PKc.exit.thread, label %_ZN7logging11CheckGTImplImtEEPNSt7__cxx1112basic_stringIcSt11char_traitsIcESaIcEEERKT_RKT0_PKc.exit

_ZN7logging11CheckGTImplImtEEPNSt7__cxx1112basic_stringIcSt11char_traitsIcESaIcEEERKT_RKT0_PKc.exit.thread: ; preds = %12
  call void @llvm.lifetime.end.p0(i64 8, ptr nonnull %5) #20
  br label %26

_ZN7logging11CheckGTImplImtEEPNSt7__cxx1112basic_stringIcSt11char_traitsIcESaIcEEERKT_RKT0_PKc.exit: ; preds = %12
  %24 = call noundef ptr @_ZN7logging17MakeCheckOpStringImtEEPNSt7__cxx1112basic_stringIcSt11char_traitsIcESaIcEEERKT_RKT0_PKc(ptr noundef nonnull align 8 dereferenceable(8) %5, ptr noundef nonnull align 2 dereferenceable(2) %4, ptr noundef nonnull @.str.10)
  call void @llvm.lifetime.end.p0(i64 8, ptr nonnull %5) #20
  %.not.i = icmp eq ptr %24, null
  br i1 %.not.i, label %26, label %25

25:                                               ; preds = %_ZN7logging11CheckGTImplImtEEPNSt7__cxx1112basic_stringIcSt11char_traitsIcESaIcEEERKT_RKT0_PKc.exit
  call void @llvm.lifetime.start.p0(i64 408, ptr nonnull %6) #20
  call void @_ZN7logging10LogMessageC1EPKciPNSt7__cxx1112basic_stringIcSt11char_traitsIcESaIcEEE(ptr noundef nonnull align 8 dereferenceable(404) %6, ptr noundef nonnull @.str, i32 noundef 258, ptr noundef nonnull %24)
  call void @_ZN7logging10LogMessageD1Ev(ptr noundef nonnull align 8 dereferenceable(404) %6) #20
  call void @llvm.lifetime.end.p0(i64 408, ptr nonnull %6) #20
  br label %26

26:                                               ; preds = %_ZN7logging11CheckGTImplImtEEPNSt7__cxx1112basic_stringIcSt11char_traitsIcESaIcEEERKT_RKT0_PKc.exit.thread, %_ZN7logging11CheckGTImplImtEEPNSt7__cxx1112basic_stringIcSt11char_traitsIcESaIcEEERKT_RKT0_PKc.exit, %25
  %27 = load i16, ptr %4, align 2, !tbaa !77
  %28 = zext i16 %27 to i64
  %29 = load ptr, ptr %9, align 8, !tbaa !13
  %30 = getelementptr inbounds nuw i8, ptr %29, i64 %28
  %31 = load i8, ptr %30, align 1, !tbaa !67
  %32 = zext i8 %31 to i64
  %33 = add i64 %.0816, %32
  call void @llvm.lifetime.end.p0(i64 2, ptr nonnull %4) #20
  %34 = add nuw i64 %.017, 1
  %.not = icmp eq i64 %34, %2
  br i1 %.not, label %._crit_edge.loopexit, label %12, !llvm.loop !85
}